; Function Attrs: mustprogress uwtable
define hidden void @_ZN3sls10smt_plugin19sls_activity_to_smtEv(ptr noundef nonnull align 8 dereferenceable(3024) %0) local_unnamed_addr #3 align 2 {
  %2 = alloca %"class.uint_set::iterator", align 8
  %3 = alloca %"class.uint_set::iterator", align 8
  %4 = alloca %"class.uint_set::iterator", align 8
  %5 = tail call noundef i32 @_Z19get_verbosity_levelv()
  %6 = icmp ugt i32 %5, 1
  br i1 %6, label %7, label %15

7:                                                ; preds = %1
  %8 = tail call noundef zeroext i1 @_Z11is_threadedv()
  br i1 %8, label %9, label %12

9:                                                ; preds = %7
  tail call void @_Z12verbose_lockv()
  %10 = tail call noundef nonnull align 8 dereferenceable(8) ptr @_Z14verbose_streamv()
  %11 = tail call noundef nonnull align 8 dereferenceable(8) ptr @_ZSt16__ostream_insertIcSt11char_traitsIcEERSt13basic_ostreamIT_T0_ES6_PKS3_l(ptr noundef nonnull align 8 dereferenceable(8) %10, ptr noundef nonnull @.str.8, i64 noundef 20)
  tail call void @_Z14verbose_unlockv()
  br label %15

12:                                               ; preds = %7
  %13 = tail call noundef nonnull align 8 dereferenceable(8) ptr @_Z14verbose_streamv()
  %14 = tail call noundef nonnull align 8 dereferenceable(8) ptr @_ZSt16__ostream_insertIcSt11char_traitsIcEERSt13basic_ostreamIT_T0_ES6_PKS3_l(ptr noundef nonnull align 8 dereferenceable(8) %13, ptr noundef nonnull @.str.8, i64 noundef 20)
  br label %15

15:                                               ; preds = %9, %12, %1
  %16 = getelementptr inbounds nuw i8, ptr %0, i64 2960
  call void @llvm.lifetime.start.p0(i64 16, ptr nonnull %4) #23
  call void @llvm.lifetime.start.p0(i64 16, ptr nonnull %3)
  store ptr %16, ptr %3, align 8, !tbaa !199
  %.pr.pre.i.i = load ptr, ptr %16, align 8, !tbaa !181
  %17 = getelementptr inbounds nuw i8, ptr %3, i64 8
  store i32 0, ptr %17, align 8, !tbaa !202
  %18 = icmp eq ptr %.pr.pre.i.i, null
  br i1 %18, label %_ZNK8uint_set5beginEv.exit, label %19

19:                                               ; preds = %15
  %20 = getelementptr inbounds i8, ptr %.pr.pre.i.i, i64 -4
  %21 = load i32, ptr %20, align 4, !tbaa !173
  %22 = shl i32 %21, 5
  br label %_ZNK8uint_set5beginEv.exit

_ZNK8uint_set5beginEv.exit:                       ; preds = %15, %19
  %.0.i.i4.i.i = phi i32 [ %22, %19 ], [ 0, %15 ]
  %23 = getelementptr inbounds nuw i8, ptr %3, i64 12
  store i32 %.0.i.i4.i.i, ptr %23, align 4, !tbaa !203
  call void @_ZN8uint_set8iterator4scanEv(ptr noundef nonnull align 8 dereferenceable(16) %3)
  %.fca.0.load.i = load ptr, ptr %3, align 8
  %.fca.1.load.i = load i64, ptr %17, align 8
  call void @llvm.lifetime.end.p0(i64 16, ptr nonnull %3)
  store ptr %.fca.0.load.i, ptr %4, align 8
  %24 = getelementptr inbounds nuw i8, ptr %4, i64 8
  store i64 %.fca.1.load.i, ptr %24, align 8
  call void @llvm.lifetime.start.p0(i64 16, ptr nonnull %2)
  store ptr %16, ptr %2, align 8, !tbaa !199
  %.pr.pre.i.i4 = load ptr, ptr %16, align 8, !tbaa !181
  %25 = icmp eq ptr %.pr.pre.i.i4, null
  %26 = trunc i64 %.fca.1.load.i to i32
  br i1 %25, label %_ZNK8uint_set3endEv.exit, label %_ZNK8uint_set12get_max_elemEv.exit.thread6.i.i

_ZNK8uint_set12get_max_elemEv.exit.thread6.i.i:   ; preds = %_ZNK8uint_set5beginEv.exit
  %27 = getelementptr inbounds i8, ptr %.pr.pre.i.i4, i64 -4
  %28 = load i32, ptr %27, align 4, !tbaa !173
  %29 = shl i32 %28, 5
  br label %_ZNK8uint_set3endEv.exit

_ZNK8uint_set3endEv.exit:                         ; preds = %_ZNK8uint_set5beginEv.exit, %_ZNK8uint_set12get_max_elemEv.exit.thread6.i.i
  %.sink.i = phi i32 [ %29, %_ZNK8uint_set12get_max_elemEv.exit.thread6.i.i ], [ 0, %_ZNK8uint_set5beginEv.exit ]
  %30 = getelementptr inbounds nuw i8, ptr %2, i64 8
  store i32 %.sink.i, ptr %30, align 8, !tbaa !202
  %31 = getelementptr inbounds nuw i8, ptr %2, i64 12
  store i32 %.sink.i, ptr %31, align 4, !tbaa !203
  call void @_ZN8uint_set8iterator4scanEv(ptr noundef nonnull align 8 dereferenceable(16) %2)
  %.fca.1.load.i7 = load i64, ptr %30, align 8
  call void @llvm.lifetime.end.p0(i64 16, ptr nonnull %2)
  %.sroa.3.8.extract.trunc = trunc i64 %.fca.1.load.i7 to i32
  %.not9 = icmp eq i32 %26, %.sroa.3.8.extract.trunc
  br i1 %.not9, label %._crit_edge, label %.lr.ph

.lr.ph:                                           ; preds = %_ZNK8uint_set3endEv.exit
  %32 = getelementptr inbounds nuw i8, ptr %0, i64 16
  %33 = getelementptr inbounds nuw i8, ptr %0, i64 3000
  br label %34

._crit_edge:                                      ; preds = %34, %_ZNK8uint_set3endEv.exit
  call void @llvm.lifetime.end.p0(i64 16, ptr nonnull %4) #23
  ret void

34:                                               ; preds = %.lr.ph, %34
  %35 = phi i32 [ %26, %.lr.ph ], [ %47, %34 ]
  %36 = load ptr, ptr %32, align 8, !tbaa !195
  %37 = load ptr, ptr %33, align 8, !tbaa !189
  %38 = zext i32 %35 to i64
  %39 = getelementptr inbounds nuw double, ptr %37, i64 %38
  %40 = load double, ptr %39, align 8, !tbaa !293
  %41 = fmul double %40, 2.000000e+02
  %42 = load ptr, ptr %36, align 8, !tbaa !3
  %43 = getelementptr inbounds nuw i8, ptr %42, i64 80
  %44 = load ptr, ptr %43, align 8
  call void %44(ptr noundef nonnull align 8 dereferenceable(8) %36, i32 noundef %35, double noundef %41)
  %45 = load i32, ptr %24, align 8, !tbaa !202
  %46 = add i32 %45, 1
  store i32 %46, ptr %24, align 8, !tbaa !202
  call void @_ZN8uint_set8iterator4scanEv(ptr noundef nonnull align 8 dereferenceable(16) %4)
  %47 = load i32, ptr %24, align 8, !tbaa !202
  %.not = icmp eq i32 %47, %.sroa.3.8.extract.trunc
  br i1 %.not, label %._crit_edge, label %34
}